target datalayout = "e-m:e-p270:32:32-p271:32:32-p272:64:64-i64:64-i128:128-f80:128-n8:16:32:64-S128"
target triple = "x86_64-pc-linux-gnu"

%struct.JSValue = type { %union.JSValueUnion, i64 }
%union.JSValueUnion = type { double }

@stdout = external global ptr, align 8

; Function Attrs: nounwind uwtable
define internal ptr @JS_ToCStringLen(ptr noundef %0, ptr noundef %1, i64 %2, i64 %3) #0 {
  %5 = alloca %struct.JSValue, align 8
  %6 = alloca ptr, align 8
  %7 = alloca ptr, align 8
  %8 = getelementptr inbounds { i64, i64 }, ptr %5, i32 0, i32 0
  store i64 %2, ptr %8, align 8
  %9 = getelementptr inbounds { i64, i64 }, ptr %5, i32 0, i32 1
  store i64 %3, ptr %9, align 8
  store ptr %0, ptr %6, align 8
  store ptr %1, ptr %7, align 8
  %10 = load ptr, ptr %6, align 8
  %11 = load ptr, ptr %7, align 8
  %12 = getelementptr inbounds { i64, i64 }, ptr %5, i32 0, i32 0
  %13 = load i64, ptr %12, align 8
  %14 = getelementptr inbounds { i64, i64 }, ptr %5, i32 0, i32 1
  %15 = load i64, ptr %14, align 8
  %16 = call ptr @JS_ToCStringLen2(ptr noundef %10, ptr noundef %11, i64 %13, i64 %15, i32 noundef 0)
  ret ptr %16
}

; Function Attrs: nounwind uwtable
define internal { i64, i64 } @js_print(ptr noundef %0, i64 %1, i64 %2, i32 noundef %3, ptr noundef %4) #0 {
  %6 = alloca %struct.JSValue, align 8
  %7 = alloca %struct.JSValue, align 8
  %8 = alloca ptr, align 8
  %9 = alloca i32, align 4
  %10 = alloca ptr, align 8
  %11 = alloca i32, align 4
  %12 = alloca ptr, align 8
  %13 = alloca i64, align 8
  %14 = getelementptr inbounds { i64, i64 }, ptr %7, i32 0, i32 0
  store i64 %1, ptr %14, align 8
  %15 = getelementptr inbounds { i64, i64 }, ptr %7, i32 0, i32 1
  store i64 %2, ptr %15, align 8
  store ptr %0, ptr %8, align 8
  store i32 %3, ptr %9, align 4
  store ptr %4, ptr %10, align 8
  store i32 0, ptr %11, align 4
  br label %16

16:                                               ; preds = %48, %5
  %17 = load i32, ptr %11, align 4
  %18 = load i32, ptr %9, align 4
  %19 = icmp slt i32 %17, %18
  br i1 %19, label %20, label %51

20:                                               ; preds = %16
  %21 = load i32, ptr %11, align 4
  %22 = icmp ne i32 %21, 0
  br i1 %22, label %23, label %25

23:                                               ; preds = %20
  %24 = call i32 @putchar(i32 noundef 32)
  br label %25

25:                                               ; preds = %23, %20
  %26 = load ptr, ptr %8, align 8
  %27 = load ptr, ptr %10, align 8
  %28 = load i32, ptr %11, align 4
  %29 = sext i32 %28 to i64
  %30 = getelementptr %struct.JSValue, ptr %27, i64 %29
  %31 = getelementptr inbounds { i64, i64 }, ptr %30, i32 0, i32 0
  %32 = load i64, ptr %31, align 8
  %33 = getelementptr inbounds { i64, i64 }, ptr %30, i32 0, i32 1
  %34 = load i64, ptr %33, align 8
  %35 = call ptr @JS_ToCStringLen(ptr noundef %26, ptr noundef %13, i64 %32, i64 %34)
  store ptr %35, ptr %12, align 8
  %36 = load ptr, ptr %12, align 8
  %37 = icmp ne ptr %36, null
  br i1 %37, label %41, label %38

38:                                               ; preds = %25
  %39 = getelementptr inbounds %struct.JSValue, ptr %6, i32 0, i32 0
  store i32 0, ptr %39, align 8
  %40 = getelementptr inbounds %struct.JSValue, ptr %6, i32 0, i32 1
  store i64 6, ptr %40, align 8
  br label %55

41:                                               ; preds = %25
  %42 = load ptr, ptr %12, align 8
  %43 = load i64, ptr %13, align 8
  %44 = load ptr, ptr @stdout, align 8
  %45 = call i64 @fwrite(ptr noundef %42, i64 noundef 1, i64 noundef %43, ptr noundef %44)
  %46 = load ptr, ptr %8, align 8
  %47 = load ptr, ptr %12, align 8
  call void @JS_FreeCString(ptr noundef %46, ptr noundef %47)
  br label %48

48:                                               ; preds = %41
  %49 = load i32, ptr %11, align 4
  %50 = add i32 %49, 1
  store i32 %50, ptr %11, align 4
  br label %16, !llvm.loop !9

51:                                               ; preds = %16
  %52 = call i32 @putchar(i32 noundef 10)
  %53 = getelementptr inbounds %struct.JSValue, ptr %6, i32 0, i32 0
  store i32 0, ptr %53, align 8
  %54 = getelementptr inbounds %struct.JSValue, ptr %6, i32 0, i32 1
  store i64 3, ptr %54, align 8
  br label %55

55:                                               ; preds = %51, %38
  %56 = load { i64, i64 }, ptr %6, align 8
  ret { i64, i64 } %56
}