; Function Attrs: nounwind uwtable
define internal { i64, i64 } @js_print(ptr noundef %0, i64 %1, i64 %2, i32 noundef %3, ptr nocapture noundef readonly %4) #0 {
  %6 = alloca i64, align 8
  %7 = icmp sgt i32 %3, 0
  br i1 %7, label %.lr.ph.preheader, label %._crit_edge

.lr.ph.preheader:                                 ; preds = %5
  %wide.trip.count = zext nneg i32 %3 to i64
  br label %.lr.ph

.lr.ph:                                           ; preds = %.lr.ph.preheader, %16
  %indvars.iv = phi i64 [ 0, %.lr.ph.preheader ], [ %indvars.iv.next, %16 ]
  %.not = icmp eq i64 %indvars.iv, 0
  br i1 %.not, label %10, label %8

8:                                                ; preds = %.lr.ph
  %9 = call i32 @putchar(i32 noundef 32)
  br label %10

10:                                               ; preds = %8, %.lr.ph
  %11 = getelementptr %struct.JSValue, ptr %4, i64 %indvars.iv
  %12 = load i64, ptr %11, align 8
  %13 = getelementptr inbounds i8, ptr %11, i64 8
  %14 = load i64, ptr %13, align 8
  %15 = call ptr @JS_ToCStringLen2(ptr noundef %0, ptr noundef nonnull %6, i64 %12, i64 %14, i32 noundef 0) #29
  %.not13 = icmp eq ptr %15, null
  br i1 %.not13, label %.loopexit, label %16

16:                                               ; preds = %10
  %17 = load i64, ptr %6, align 8
  %18 = load ptr, ptr @stdout, align 8
  %19 = call i64 @fwrite(ptr noundef nonnull %15, i64 noundef 1, i64 noundef %17, ptr noundef %18)
  call void @JS_FreeCString(ptr noundef %0, ptr noundef nonnull %15) #29
  %indvars.iv.next = add nuw nsw i64 %indvars.iv, 1
  %exitcond.not = icmp eq i64 %indvars.iv.next, %wide.trip.count
  br i1 %exitcond.not, label %._crit_edge, label %.lr.ph, !llvm.loop !10

._crit_edge:                                      ; preds = %16, %5
  %20 = call i32 @putchar(i32 noundef 10)
  br label %.loopexit

.loopexit:                                        ; preds = %10, %._crit_edge
  %.sroa.3.sroa.1.0 = phi i64 [ 3, %._crit_edge ], [ 6, %10 ]
  %.fca.1.insert = insertvalue { i64, i64 } { i64 0, i64 poison }, i64 %.sroa.3.sroa.1.0, 1
  ret { i64, i64 } %.fca.1.insert
}